target datalayout = "e-m:e-p270:32:32-p271:32:32-p272:64:64-i64:64-i128:128-f80:128-n8:16:32:64-S128"
target triple = "x86_64-pc-linux-gnu"

%struct.uv_lib_t = type { ptr, ptr }

@.str = private unnamed_addr constant [9 x i8] c"no error\00", align 1

; Function Attrs: nounwind uwtable
define dso_local i32 @uv_dlopen(ptr noundef %0, ptr noundef %1) #0 {
  %3 = alloca ptr, align 8
  %4 = alloca ptr, align 8
  store ptr %0, ptr %3, align 8
  store ptr %1, ptr %4, align 8
  %5 = call ptr @dlerror() #4
  %6 = load ptr, ptr %4, align 8
  %7 = getelementptr inbounds nuw %struct.uv_lib_t, ptr %6, i32 0, i32 1
  store ptr null, ptr %7, align 8
  %8 = load ptr, ptr %3, align 8
  %9 = call ptr @dlopen(ptr noundef %8, i32 noundef 1) #4
  %10 = load ptr, ptr %4, align 8
  %11 = getelementptr inbounds nuw %struct.uv_lib_t, ptr %10, i32 0, i32 0
  store ptr %9, ptr %11, align 8
  %12 = load ptr, ptr %4, align 8
  %13 = getelementptr inbounds nuw %struct.uv_lib_t, ptr %12, i32 0, i32 0
  %14 = load ptr, ptr %13, align 8
  %15 = icmp ne ptr %14, null
  br i1 %15, label %16, label %17

16:                                               ; preds = %2
  br label %20

17:                                               ; preds = %2
  %18 = load ptr, ptr %4, align 8
  %19 = call i32 @uv__dlerror(ptr noundef %18)
  br label %20

20:                                               ; preds = %17, %16
  %21 = phi i32 [ 0, %16 ], [ %19, %17 ]
  ret i32 %21
}

; Function Attrs: nounwind
declare ptr @dlerror() #1

; Function Attrs: nounwind
declare ptr @dlopen(ptr noundef, i32 noundef) #1

; Function Attrs: nounwind uwtable
define internal i32 @uv__dlerror(ptr noundef %0) #0 {
  %2 = alloca i32, align 4
  %3 = alloca ptr, align 8
  %4 = alloca ptr, align 8
  %5 = alloca i32, align 4
  store ptr %0, ptr %3, align 8
  call void @llvm.lifetime.start.p0(i64 8, ptr %4) #4
  %6 = load ptr, ptr %3, align 8
  %7 = getelementptr inbounds nuw %struct.uv_lib_t, ptr %6, i32 0, i32 1
  %8 = load ptr, ptr %7, align 8
  call void @uv__free(ptr noundef %8)
  %9 = call ptr @dlerror() #4
  store ptr %9, ptr %4, align 8
  %10 = load ptr, ptr %4, align 8
  %11 = icmp ne ptr %10, null
  br i1 %11, label %12, label %17

12:                                               ; preds = %1
  %13 = load ptr, ptr %4, align 8
  %14 = call ptr @uv__strdup(ptr noundef %13)
  %15 = load ptr, ptr %3, align 8
  %16 = getelementptr inbounds nuw %struct.uv_lib_t, ptr %15, i32 0, i32 1
  store ptr %14, ptr %16, align 8
  store i32 -1, ptr %2, align 4
  store i32 1, ptr %5, align 4
  br label %20

17:                                               ; preds = %1
  %18 = load ptr, ptr %3, align 8
  %19 = getelementptr inbounds nuw %struct.uv_lib_t, ptr %18, i32 0, i32 1
  store ptr null, ptr %19, align 8
  store i32 0, ptr %2, align 4
  store i32 1, ptr %5, align 4
  br label %20

20:                                               ; preds = %17, %12
  call void @llvm.lifetime.end.p0(i64 8, ptr %4) #4
  %21 = load i32, ptr %2, align 4
  ret i32 %21
}

; Function Attrs: nounwind uwtable
define dso_local void @uv_dlclose(ptr noundef %0) #0 {
  %2 = alloca ptr, align 8
  store ptr %0, ptr %2, align 8
  %3 = load ptr, ptr %2, align 8
  %4 = getelementptr inbounds nuw %struct.uv_lib_t, ptr %3, i32 0, i32 1
  %5 = load ptr, ptr %4, align 8
  call void @uv__free(ptr noundef %5)
  %6 = load ptr, ptr %2, align 8
  %7 = getelementptr inbounds nuw %struct.uv_lib_t, ptr %6, i32 0, i32 1
  store ptr null, ptr %7, align 8
  %8 = load ptr, ptr %2, align 8
  %9 = getelementptr inbounds nuw %struct.uv_lib_t, ptr %8, i32 0, i32 0
  %10 = load ptr, ptr %9, align 8
  %11 = icmp ne ptr %10, null
  br i1 %11, label %12, label %19

12:                                               ; preds = %1
  %13 = load ptr, ptr %2, align 8
  %14 = getelementptr inbounds nuw %struct.uv_lib_t, ptr %13, i32 0, i32 0
  %15 = load ptr, ptr %14, align 8
  %16 = call i32 @dlclose(ptr noundef %15) #4
  %17 = load ptr, ptr %2, align 8
  %18 = getelementptr inbounds nuw %struct.uv_lib_t, ptr %17, i32 0, i32 0
  store ptr null, ptr %18, align 8
  br label %19

19:                                               ; preds = %12, %1
  ret void
}

declare void @uv__free(ptr noundef) #2

; Function Attrs: nounwind
declare i32 @dlclose(ptr noundef) #1

; Function Attrs: nounwind uwtable
define dso_local i32 @uv_dlsym(ptr noundef %0, ptr noundef %1, ptr noundef %2) #0 {
  %4 = alloca ptr, align 8
  %5 = alloca ptr, align 8
  %6 = alloca ptr, align 8
  store ptr %0, ptr %4, align 8
  store ptr %1, ptr %5, align 8
  store ptr %2, ptr %6, align 8
  %7 = call ptr @dlerror() #4
  %8 = load ptr, ptr %4, align 8
  %9 = getelementptr inbounds nuw %struct.uv_lib_t, ptr %8, i32 0, i32 0
  %10 = load ptr, ptr %9, align 8
  %11 = load ptr, ptr %5, align 8
  %12 = call ptr @dlsym(ptr noundef %10, ptr noundef %11) #4
  %13 = load ptr, ptr %6, align 8
  store ptr %12, ptr %13, align 8
  %14 = load ptr, ptr %6, align 8
  %15 = load ptr, ptr %14, align 8
  %16 = icmp ne ptr %15, null
  br i1 %16, label %17, label %18

17:                                               ; preds = %3
  br label %21

18:                                               ; preds = %3
  %19 = load ptr, ptr %4, align 8
  %20 = call i32 @uv__dlerror(ptr noundef %19)
  br label %21

21:                                               ; preds = %18, %17
  %22 = phi i32 [ 0, %17 ], [ %20, %18 ]
  ret i32 %22
}

; Function Attrs: nounwind
declare ptr @dlsym(ptr noundef, ptr noundef) #1

; Function Attrs: nounwind uwtable
define dso_local ptr @uv_dlerror(ptr noundef %0) #0 {
  %2 = alloca ptr, align 8
  store ptr %0, ptr %2, align 8
  %3 = load ptr, ptr %2, align 8
  %4 = getelementptr inbounds nuw %struct.uv_lib_t, ptr %3, i32 0, i32 1
  %5 = load ptr, ptr %4, align 8
  %6 = icmp ne ptr %5, null
  br i1 %6, label %7, label %11

7:                                                ; preds = %1
  %8 = load ptr, ptr %2, align 8
  %9 = getelementptr inbounds nuw %struct.uv_lib_t, ptr %8, i32 0, i32 1
  %10 = load ptr, ptr %9, align 8
  br label %12

11:                                               ; preds = %1
  br label %12

12:                                               ; preds = %11, %7
  %13 = phi ptr [ %10, %7 ], [ @.str, %11 ]
  ret ptr %13
}

; Function Attrs: nocallback nofree nosync nounwind willreturn memory(argmem: readwrite)
declare void @llvm.lifetime.start.p0(i64 immarg, ptr captures(none)) #3

declare ptr @uv__strdup(ptr noundef) #2

; Function Attrs: nocallback nofree nosync nounwind willreturn memory(argmem: readwrite)
declare void @llvm.lifetime.end.p0(i64 immarg, ptr captures(none)) #3


!llvm.module.flags = !{!0, !1, !2, !3}

!0 = !{i32 1, !"wchar_size", i32 4}
!1 = !{i32 8, !"PIC Level", i32 2}
!2 = !{i32 7, !"PIE Level", i32 2}
!3 = !{i32 7, !"uwtable", i32 2}
